(lp0
(lp1
I784
aI800
aI10
aaF0.05
aI100
aF0.5664
ag1
aF0.1
aI100
aF0.7614
ag1
aF0.15000000000000002
aI100
aF0.8021
ag1
aF0.2
aI100
aF0.8243
ag1
aF0.25
aI100
aF0.8405
ag1
aF0.3
aI100
aF0.8525
ag1
aF0.35
aI100
aF0.8629
ag1
aF0.39999999999999997
aI100
aF0.8705
ag1
aF0.44999999999999996
aI100
aF0.8774
ag1
aF0.49999999999999994
aI100
aF0.8805
ag1
aF0.5499999999999999
aI100
aF0.8879
ag1
aF0.6
aI100
aF0.8936
ag1
aF0.65
aI100
aF0.888
ag1
aF0.7000000000000001
aI100
aF0.8992
ag1
aF0.7500000000000001
aI100
aF0.8894
ag1
aF0.8000000000000002
aI100
aF0.8726
ag1
aF0.8500000000000002
aI100
aF0.8384
ag1
aF0.9000000000000002
aI100
aF0.8684
ag1
aF0.9500000000000003
aI100
aF0.892
a.