(lp0
(lp1
I784
aI500
aI300
aI10
aaF0.2
aI100
aF0.1163
ag1
aF0.25
aI100
aF0.1776
ag1
aF0.3
aI100
aF0.2513
ag1
aF0.35
aI100
aF0.2902
ag1
aF0.39999999999999997
aI100
aF0.3112
ag1
aF0.44999999999999996
aI100
aF0.3179
ag1
aF0.49999999999999994
aI100
aF0.2969
ag1
aF0.5499999999999999
aI100
aF0.2985
a.