(lp0
(lp1
I784
aI500
aI300
aI10
aaF0.2
aI100
aF0.2446
ag1
aF0.25
aI100
aF0.2655
ag1
aF0.3
aI100
aF0.2796
ag1
aF0.35
aI100
aF0.297
ag1
aF0.39999999999999997
aI100
aF0.3151
ag1
aF0.44999999999999996
aI100
aF0.2651
ag1
aF0.49999999999999994
aI100
aF0.3153
ag1
aF0.5499999999999999
aI100
aF0.2966
a.