(lp0
(lp1
I784
aI800
aI10
aaF0.01
aF0.9114
ag1
aF0.02
aF0.9275
ag1
aF0.03
aF0.9443
ag1
aF0.04
aF0.9479
ag1
aF0.05
aF0.9552
ag1
aF0.060000000000000005
aF0.9549
ag1
aF0.07
aF0.954
ag1
aF0.08
aF0.9505
ag1
aF0.09
aF0.9547
ag1
aF0.09999999999999999
aF0.9416
a.