(lp0
(lp1
I784
aI300
aI10
aaF0.6
aI100
aF0.8937
ag1
aF0.65
aI100
aF0.8984
ag1
aF0.7000000000000001
aI100
aF0.8972
ag1
aF0.7500000000000001
aI100
aF0.9
ag1
aF0.8000000000000002
aI100
aF0.8997
ag1
aF0.8500000000000002
aI100
aF0.9037
a.