(lp0
(lp1
I784
aI300
aI10
aaF0.15
aI10
aF0.8576
ag1
aF0.16
aI10
aF0.8623
ag1
aF0.17
aI10
aF0.8662
ag1
aF0.18000000000000002
aI10
aF0.8702
ag1
aF0.19000000000000003
aI10
aF0.8723
ag1
aF0.20000000000000004
aI10
aF0.8738
ag1
aF0.21000000000000005
aI10
aF0.8773
ag1
aF0.22000000000000006
aI10
aF0.8789
ag1
aF0.23000000000000007
aI10
aF0.881
ag1
aF0.24000000000000007
aI10
aF0.8845
a.(lp0
(lp1
I784
aI300
aI10
aaF0.25
aI10
aF0.8853
ag1
aF0.26
aI10
aF0.8869
ag1
aF0.27
aI10
aF0.8877
ag1
aF0.28
aI10
aF0.889
ag1
aF0.29000000000000004
aI10
aF0.8881
a.