(lp0
(lp1
I784
aI300
aI10
aaF0.1
aI100
aF0.7615
ag1
aF0.15000000000000002
aI100
aF0.8262
ag1
aF0.2
aI100
aF0.8518
ag1
aF0.25
aI100
aF0.8655
ag1
aF0.3
aI100
aF0.8719
ag1
aF0.35
aI100
aF0.8772
ag1
aF0.39999999999999997
aI100
aF0.8841
ag1
aF0.44999999999999996
aI100
aF0.8862
ag1
aF0.49999999999999994
aI100
aF0.8918
ag1
aF0.5499999999999999
aI100
aF0.8927
a.