(lp0
(lp1
I784
aI300
aI10
aaF0.4
aI1
aF0.8384
ag1
aF0.45
aI1
aF0.7649
ag1
aF0.5
aI1
aF0.098
ag1
aF0.55
aI1
aF0.098
ag1
aF0.6000000000000001
aI1
aF0.098
a.(lp0
(lp1
I784
aI300
aI10
aaF0.1
aI1
aF0.9495
ag1
aF0.15000000000000002
aI1
aF0.9425
ag1
aF0.2
aI1
aF0.9326
ag1
aF0.25
aI1
aF0.919
a.